target datalayout = "e-m:e-p270:32:32-p271:32:32-p272:64:64-i64:64-i128:128-f80:128-n8:16:32:64-S128"
target triple = "x86_64-pc-linux-gnu"

@.str.4 = private unnamed_addr constant [9 x i8] c"postgres\00", align 1
@.str.5 = private unnamed_addr constant [31 x i8] c"postgres (PostgreSQL) 18devel\0A\00", align 1
@backend_exec = internal global [1024 x i8] zeroinitializer, align 16
@progname = internal global ptr null, align 8
@.str.6 = private unnamed_addr constant [77 x i8] c"program \22%s\22 is needed by %s but was not found in the same directory as \22%s\22\00", align 1
@.str.7 = private unnamed_addr constant [66 x i8] c"program \22%s\22 was found by \22%s\22 but was not the same version as %s\00", align 1
@bin_path = internal global [1024 x i8] zeroinitializer, align 16
@share_path = internal global ptr null, align 8
@.str.8 = private unnamed_addr constant [45 x i8] c"input file location must be an absolute path\00", align 1

; Function Attrs: nounwind uwtable
define dso_local void @setup_bin_paths(ptr noundef %0) #0 {
  %2 = alloca ptr, align 8
  %3 = alloca i32, align 4
  %4 = alloca [1024 x i8], align 16
  store ptr %0, ptr %2, align 8
  call void @llvm.lifetime.start.p0(i64 4, ptr %3) #10
  %5 = load ptr, ptr %2, align 8
  %6 = call i32 @find_other_exec(ptr noundef %5, ptr noundef @.str.4, ptr noundef @.str.5, ptr noundef @backend_exec)
  store i32 %6, ptr %3, align 4
  %7 = icmp slt i32 %6, 0
  br i1 %7, label %8, label %33

8:                                                ; preds = %1
  call void @llvm.lifetime.start.p0(i64 1024, ptr %4) #10
  %9 = load ptr, ptr %2, align 8
  %10 = getelementptr inbounds [1024 x i8], ptr %4, i64 0, i64 0
  %11 = call i32 @find_my_exec(ptr noundef %9, ptr noundef %10)
  %12 = icmp slt i32 %11, 0
  br i1 %12, label %13, label %17

13:                                               ; preds = %8
  %14 = getelementptr inbounds [1024 x i8], ptr %4, i64 0, i64 0
  %15 = load ptr, ptr @progname, align 8
  %16 = call i64 @strlcpy(ptr noundef %14, ptr noundef %15, i64 noundef 1024)
  br label %17

17:                                               ; preds = %13, %8
  %18 = load i32, ptr %3, align 4
  %19 = icmp eq i32 %18, -1
  br i1 %19, label %20, label %26

20:                                               ; preds = %17
  br label %21

21:                                               ; preds = %20
  %22 = load ptr, ptr @progname, align 8
  %23 = getelementptr inbounds [1024 x i8], ptr %4, i64 0, i64 0
  call void (i32, i32, ptr, ...) @pg_log_generic(i32 noundef 4, i32 noundef 0, ptr noundef @.str.6, ptr noundef @.str.4, ptr noundef %22, ptr noundef %23)
  call void @exit(i32 noundef 1) #12
  unreachable

24:                                               ; No predecessors!
  br label %25

25:                                               ; preds = %24
  br label %32

26:                                               ; preds = %17
  br label %27

27:                                               ; preds = %26
  %28 = getelementptr inbounds [1024 x i8], ptr %4, i64 0, i64 0
  %29 = load ptr, ptr @progname, align 8
  call void (i32, i32, ptr, ...) @pg_log_generic(i32 noundef 4, i32 noundef 0, ptr noundef @.str.7, ptr noundef @.str.4, ptr noundef %28, ptr noundef %29)
  call void @exit(i32 noundef 1) #12
  unreachable

30:                                               ; No predecessors!
  br label %31

31:                                               ; preds = %30
  br label %32

32:                                               ; preds = %31, %25
  call void @llvm.lifetime.end.p0(i64 1024, ptr %4) #10
  br label %33

33:                                               ; preds = %32, %1
  %34 = call ptr @strcpy(ptr noundef @bin_path, ptr noundef @backend_exec) #10
  %35 = call ptr @last_dir_separator(ptr noundef @bin_path)
  store i8 0, ptr %35, align 1
  call void @canonicalize_path(ptr noundef @bin_path)
  %36 = load ptr, ptr @share_path, align 8
  %37 = icmp ne ptr %36, null
  br i1 %37, label %41, label %38

38:                                               ; preds = %33
  %39 = call ptr @pg_malloc(i64 noundef 1024)
  store ptr %39, ptr @share_path, align 8
  %40 = load ptr, ptr @share_path, align 8
  call void @get_share_path(ptr noundef @backend_exec, ptr noundef %40)
  br label %52

41:                                               ; preds = %33
  %42 = load ptr, ptr @share_path, align 8
  %43 = getelementptr inbounds i8, ptr %42, i64 0
  %44 = load i8, ptr %43, align 1
  %45 = sext i8 %44 to i32
  %46 = icmp eq i32 %45, 47
  br i1 %46, label %51, label %47

47:                                               ; preds = %41
  br label %48

48:                                               ; preds = %47
  call void (i32, i32, ptr, ...) @pg_log_generic(i32 noundef 4, i32 noundef 0, ptr noundef @.str.8)
  call void @exit(i32 noundef 1) #12
  unreachable

49:                                               ; No predecessors!
  br label %50

50:                                               ; preds = %49
  br label %51

51:                                               ; preds = %50, %41
  br label %52

52:                                               ; preds = %51, %38
  %53 = load ptr, ptr @share_path, align 8
  call void @canonicalize_path(ptr noundef %53)
  call void @llvm.lifetime.end.p0(i64 4, ptr %3) #10
  ret void
}