; Function Attrs: nounwind uwtable
define dso_local void @setup_bin_paths(ptr noundef %0) local_unnamed_addr #0 {
  %2 = alloca [1024 x i8], align 16
  %3 = tail call i32 @find_other_exec(ptr noundef %0, ptr noundef nonnull @.str.4, ptr noundef nonnull @.str.5, ptr noundef nonnull @backend_exec) #19
  %4 = icmp slt i32 %3, 0
  br i1 %4, label %5, label %16

5:                                                ; preds = %1
  call void @llvm.lifetime.start.p0(i64 1024, ptr nonnull %2) #19
  %6 = call i32 @find_my_exec(ptr noundef %0, ptr noundef nonnull %2) #19
  %7 = icmp slt i32 %6, 0
  br i1 %7, label %8, label %11

8:                                                ; preds = %5
  %9 = load ptr, ptr @progname, align 8
  %10 = call i64 @strlcpy(ptr noundef nonnull dereferenceable(1) %2, ptr noundef nonnull dereferenceable(1) %9, i64 noundef 1024) #19
  br label %11

11:                                               ; preds = %8, %5
  %12 = icmp eq i32 %3, -1
  %13 = load ptr, ptr @progname, align 8
  br i1 %12, label %14, label %15

14:                                               ; preds = %11
  call void (i32, i32, ptr, ...) @pg_log_generic(i32 noundef 4, i32 noundef 0, ptr noundef nonnull @.str.6, ptr noundef nonnull @.str.4, ptr noundef %13, ptr noundef nonnull %2) #19
  call void @exit(i32 noundef 1) #20
  unreachable

15:                                               ; preds = %11
  call void (i32, i32, ptr, ...) @pg_log_generic(i32 noundef 4, i32 noundef 0, ptr noundef nonnull @.str.7, ptr noundef nonnull @.str.4, ptr noundef nonnull %2, ptr noundef %13) #19
  call void @exit(i32 noundef 1) #20
  unreachable

16:                                               ; preds = %1
  %17 = tail call ptr @strcpy(ptr noundef nonnull dereferenceable(1) @bin_path, ptr noundef nonnull dereferenceable(1) @backend_exec) #19
  %18 = tail call ptr @last_dir_separator(ptr noundef nonnull @bin_path) #19
  store i8 0, ptr %18, align 1
  tail call void @canonicalize_path(ptr noundef nonnull @bin_path) #19
  %19 = load ptr, ptr @share_path, align 8
  %.not = icmp eq ptr %19, null
  br i1 %.not, label %20, label %22

20:                                               ; preds = %16
  %21 = tail call ptr @pg_malloc(i64 noundef 1024) #19
  store ptr %21, ptr @share_path, align 8
  tail call void @get_share_path(ptr noundef nonnull @backend_exec, ptr noundef %21) #19
  %.pre = load ptr, ptr @share_path, align 8
  br label %26

22:                                               ; preds = %16
  %23 = load i8, ptr %19, align 1
  %24 = icmp eq i8 %23, 47
  br i1 %24, label %26, label %25

25:                                               ; preds = %22
  tail call void (i32, i32, ptr, ...) @pg_log_generic(i32 noundef 4, i32 noundef 0, ptr noundef nonnull @.str.8) #19
  tail call void @exit(i32 noundef 1) #20
  unreachable

26:                                               ; preds = %22, %20
  %27 = phi ptr [ %19, %22 ], [ %.pre, %20 ]
  tail call void @canonicalize_path(ptr noundef %27) #19
  ret void
}